; Function Attrs: mustprogress nofree norecurse nosync nounwind willreturn memory(argmem: readwrite) uwtable
define internal fastcc void @aria_fo_xor(ptr noundef nonnull writeonly captures(none) initializes((0, 16)) %0, ptr noundef nonnull readonly captures(none) %1, ptr noundef nonnull readonly captures(none) %2, ptr noundef nonnull readonly captures(none) %3) unnamed_addr #4 {
  %5 = load i32, ptr %1, align 4, !tbaa !3
  %6 = load i32, ptr %2, align 4, !tbaa !3
  %7 = xor i32 %6, %5
  %8 = getelementptr inbounds nuw i8, ptr %1, i64 4
  %9 = load i32, ptr %8, align 4, !tbaa !3
  %10 = getelementptr inbounds nuw i8, ptr %2, i64 4
  %11 = load i32, ptr %10, align 4, !tbaa !3
  %12 = xor i32 %11, %9
  %13 = getelementptr inbounds nuw i8, ptr %1, i64 8
  %14 = load i32, ptr %13, align 4, !tbaa !3
  %15 = getelementptr inbounds nuw i8, ptr %2, i64 8
  %16 = load i32, ptr %15, align 4, !tbaa !3
  %17 = xor i32 %16, %14
  %18 = getelementptr inbounds nuw i8, ptr %1, i64 12
  %19 = load i32, ptr %18, align 4, !tbaa !3
  %20 = getelementptr inbounds nuw i8, ptr %2, i64 12
  %21 = load i32, ptr %20, align 4, !tbaa !3
  %22 = xor i32 %21, %19
  %23 = and i32 %7, 255
  %24 = zext nneg i32 %23 to i64
  %25 = getelementptr inbounds nuw i8, ptr @aria_sb1, i64 %24
  %26 = load i8, ptr %25, align 1, !tbaa !9
  %27 = zext i8 %26 to i32
  %28 = lshr i32 %7, 8
  %29 = and i32 %28, 255
  %30 = zext nneg i32 %29 to i64
  %31 = getelementptr inbounds nuw i8, ptr @aria_sb2, i64 %30
  %32 = load i8, ptr %31, align 1, !tbaa !9
  %33 = zext i8 %32 to i32
  %34 = shl nuw nsw i32 %33, 8
  %35 = or disjoint i32 %34, %27
  %36 = lshr i32 %7, 16
  %37 = and i32 %36, 255
  %38 = zext nneg i32 %37 to i64
  %39 = getelementptr inbounds nuw i8, ptr @aria_is1, i64 %38
  %40 = load i8, ptr %39, align 1, !tbaa !9
  %41 = zext i8 %40 to i32
  %42 = shl nuw nsw i32 %41, 16
  %43 = or disjoint i32 %35, %42
  %44 = lshr i32 %7, 24
  %45 = zext nneg i32 %44 to i64
  %46 = getelementptr inbounds nuw i8, ptr @aria_is2, i64 %45
  %47 = load i8, ptr %46, align 1, !tbaa !9
  %48 = zext i8 %47 to i32
  %49 = shl nuw i32 %48, 24
  %50 = or disjoint i32 %43, %49
  %51 = and i32 %12, 255
  %52 = zext nneg i32 %51 to i64
  %53 = getelementptr inbounds nuw i8, ptr @aria_sb1, i64 %52
  %54 = load i8, ptr %53, align 1, !tbaa !9
  %55 = zext i8 %54 to i32
  %56 = lshr i32 %12, 8
  %57 = and i32 %56, 255
  %58 = zext nneg i32 %57 to i64
  %59 = getelementptr inbounds nuw i8, ptr @aria_sb2, i64 %58
  %60 = load i8, ptr %59, align 1, !tbaa !9
  %61 = zext i8 %60 to i32
  %62 = shl nuw nsw i32 %61, 8
  %63 = or disjoint i32 %62, %55
  %64 = lshr i32 %12, 16
  %65 = and i32 %64, 255
  %66 = zext nneg i32 %65 to i64
  %67 = getelementptr inbounds nuw i8, ptr @aria_is1, i64 %66
  %68 = load i8, ptr %67, align 1, !tbaa !9
  %69 = zext i8 %68 to i32
  %70 = shl nuw nsw i32 %69, 16
  %71 = or disjoint i32 %63, %70
  %72 = lshr i32 %12, 24
  %73 = zext nneg i32 %72 to i64
  %74 = getelementptr inbounds nuw i8, ptr @aria_is2, i64 %73
  %75 = load i8, ptr %74, align 1, !tbaa !9
  %76 = zext i8 %75 to i32
  %77 = shl nuw i32 %76, 24
  %78 = or disjoint i32 %71, %77
  %79 = and i32 %17, 255
  %80 = zext nneg i32 %79 to i64
  %81 = getelementptr inbounds nuw i8, ptr @aria_sb1, i64 %80
  %82 = load i8, ptr %81, align 1, !tbaa !9
  %83 = zext i8 %82 to i32
  %84 = lshr i32 %17, 8
  %85 = and i32 %84, 255
  %86 = zext nneg i32 %85 to i64
  %87 = getelementptr inbounds nuw i8, ptr @aria_sb2, i64 %86
  %88 = load i8, ptr %87, align 1, !tbaa !9
  %89 = zext i8 %88 to i32
  %90 = shl nuw nsw i32 %89, 8
  %91 = or disjoint i32 %90, %83
  %92 = lshr i32 %17, 16
  %93 = and i32 %92, 255
  %94 = zext nneg i32 %93 to i64
  %95 = getelementptr inbounds nuw i8, ptr @aria_is1, i64 %94
  %96 = load i8, ptr %95, align 1, !tbaa !9
  %97 = zext i8 %96 to i32
  %98 = shl nuw nsw i32 %97, 16
  %99 = or disjoint i32 %91, %98
  %100 = lshr i32 %17, 24
  %101 = zext nneg i32 %100 to i64
  %102 = getelementptr inbounds nuw i8, ptr @aria_is2, i64 %101
  %103 = load i8, ptr %102, align 1, !tbaa !9
  %104 = zext i8 %103 to i32
  %105 = shl nuw i32 %104, 24
  %106 = or disjoint i32 %99, %105
  %107 = and i32 %22, 255
  %108 = zext nneg i32 %107 to i64
  %109 = getelementptr inbounds nuw i8, ptr @aria_sb1, i64 %108
  %110 = load i8, ptr %109, align 1, !tbaa !9
  %111 = zext i8 %110 to i32
  %112 = lshr i32 %22, 8
  %113 = and i32 %112, 255
  %114 = zext nneg i32 %113 to i64
  %115 = getelementptr inbounds nuw i8, ptr @aria_sb2, i64 %114
  %116 = load i8, ptr %115, align 1, !tbaa !9
  %117 = zext i8 %116 to i32
  %118 = shl nuw nsw i32 %117, 8
  %119 = or disjoint i32 %118, %111
  %120 = lshr i32 %22, 16
  %121 = and i32 %120, 255
  %122 = zext nneg i32 %121 to i64
  %123 = getelementptr inbounds nuw i8, ptr @aria_is1, i64 %122
  %124 = load i8, ptr %123, align 1, !tbaa !9
  %125 = zext i8 %124 to i32
  %126 = shl nuw nsw i32 %125, 16
  %127 = or disjoint i32 %119, %126
  %128 = lshr i32 %22, 24
  %129 = zext nneg i32 %128 to i64
  %130 = getelementptr inbounds nuw i8, ptr @aria_is2, i64 %129
  %131 = load i8, ptr %130, align 1, !tbaa !9
  %132 = zext i8 %131 to i32
  %133 = shl nuw i32 %132, 24
  %134 = or disjoint i32 %127, %133
  %135 = tail call i32 @llvm.fshl.i32(i32 %78, i32 %78, i32 16)
  %136 = tail call i32 @llvm.bswap.i32(i32 %106)
  %137 = tail call i32 @llvm.fshl.i32(i32 %136, i32 %136, i32 16)
  %138 = tail call i32 @llvm.bswap.i32(i32 %134)
  %139 = xor i32 %137, %78
  %140 = tail call i32 @llvm.fshl.i32(i32 %50, i32 %50, i32 16)
  %141 = tail call i32 @llvm.bswap.i32(i32 %139)
  %142 = tail call i32 @llvm.fshl.i32(i32 %141, i32 %141, i32 16)
  %143 = xor i32 %142, %140
  %144 = xor i32 %143, %138
  %145 = xor i32 %134, %137
  %146 = tail call i32 @llvm.fshl.i32(i32 %145, i32 %145, i32 16)
  %147 = tail call i32 @llvm.bswap.i32(i32 %135)
  %148 = tail call i32 @llvm.fshl.i32(i32 %147, i32 %147, i32 16)
  %149 = xor i32 %148, %140
  %150 = tail call i32 @llvm.fshl.i32(i32 %146, i32 %146, i32 16)
  %151 = xor i32 %144, %150
  %152 = tail call i32 @llvm.bswap.i32(i32 %151)
  %153 = tail call i32 @llvm.fshl.i32(i32 %152, i32 %152, i32 16)
  %154 = tail call i32 @llvm.fshl.i32(i32 %144, i32 %144, i32 16)
  %155 = tail call i32 @llvm.bswap.i32(i32 %144)
  %156 = tail call i32 @llvm.bswap.i32(i32 %149)
  %157 = load i32, ptr %3, align 4, !tbaa !3
  %158 = xor i32 %157, %153
  %159 = xor i32 %158, %135
  store i32 %159, ptr %0, align 4, !tbaa !3
  %160 = getelementptr inbounds nuw i8, ptr %3, i64 4
  %161 = load i32, ptr %160, align 4, !tbaa !3
  %162 = xor i32 %161, %50
  %163 = xor i32 %162, %146
  %164 = xor i32 %163, %144
  %165 = getelementptr inbounds nuw i8, ptr %0, i64 4
  store i32 %164, ptr %165, align 4, !tbaa !3
  %166 = getelementptr inbounds nuw i8, ptr %3, i64 8
  %167 = load i32, ptr %166, align 4, !tbaa !3
  %168 = xor i32 %156, %167
  %169 = xor i32 %168, %154
  %170 = xor i32 %169, %138
  %171 = getelementptr inbounds nuw i8, ptr %0, i64 8
  store i32 %170, ptr %171, align 4, !tbaa !3
  %172 = getelementptr inbounds nuw i8, ptr %3, i64 12
  %173 = load i32, ptr %172, align 4, !tbaa !3
  %174 = xor i32 %173, %155
  %175 = xor i32 %174, %149
  %176 = xor i32 %175, %137
  %177 = getelementptr inbounds nuw i8, ptr %0, i64 12
  store i32 %176, ptr %177, align 4, !tbaa !3
  ret void
}